target datalayout = "e-m:e-p270:32:32-p271:32:32-p272:64:64-i64:64-i128:128-f80:128-n8:16:32:64-S128"
target triple = "x86_64-pc-linux-gnu"

%"class.smtfd::plugin_context" = type { ptr, ptr, %class.ref_vector, i32, %class.th_rewriter, %class.ptr_vector.0, %class.ref }
%class.ref_vector = type { %class.ref_vector_core }
%class.ref_vector_core = type { %class.ref_manager_wrapper, %class.ptr_vector }
%class.ref_manager_wrapper = type { ptr }
%class.ptr_vector = type { %class.vector }
%class.vector = type { ptr }
%class.th_rewriter = type { ptr, %class.params_ref }
%class.params_ref = type { ptr }
%class.ptr_vector.0 = type { %class.vector.1 }
%class.vector.1 = type { ptr }
%class.ref = type { ptr }

; Function Attrs: mustprogress nounwind uwtable
define linkonce_odr hidden noundef i32 @_ZNK6vectorIPN5smtfd13theory_pluginELb0EjE4sizeEv(ptr noundef nonnull align 8 dereferenceable(8) %0) #6 comdat align 2 {
  %2 = alloca i32, align 4
  %3 = alloca ptr, align 8
  store ptr %0, ptr %3, align 8, !tbaa !19
  %4 = load ptr, ptr %3, align 8
  %5 = getelementptr inbounds nuw %class.vector.1, ptr %4, i32 0, i32 0
  %6 = load ptr, ptr %5, align 8, !tbaa !21
  %7 = icmp eq ptr %6, null
  br i1 %7, label %8, label %9

8:                                                ; preds = %1
  store i32 0, ptr %2, align 4
  br label %14

9:                                                ; preds = %1
  %10 = getelementptr inbounds nuw %class.vector.1, ptr %4, i32 0, i32 0
  %11 = load ptr, ptr %10, align 8, !tbaa !21
  %12 = getelementptr inbounds i32, ptr %11, i64 -1
  %13 = load i32, ptr %12, align 4, !tbaa !23
  store i32 %13, ptr %2, align 4
  br label %14

14:                                               ; preds = %9, %8
  %15 = load i32, ptr %2, align 4
  ret i32 %15
}

; Function Attrs: mustprogress uwtable
define linkonce_odr hidden noundef ptr @_ZN6vectorIPN5smtfd13theory_pluginELb0EjE3endEv(ptr noundef nonnull align 8 dereferenceable(8) %0) #4 comdat align 2 {
  %2 = alloca ptr, align 8
  store ptr %0, ptr %2, align 8, !tbaa !19
  %3 = load ptr, ptr %2, align 8
  %4 = getelementptr inbounds nuw %class.vector.1, ptr %3, i32 0, i32 0
  %5 = load ptr, ptr %4, align 8, !tbaa !21
  %6 = call noundef i32 @_ZNK6vectorIPN5smtfd13theory_pluginELb0EjE4sizeEv(ptr noundef nonnull align 8 dereferenceable(8) %3)
  %7 = zext i32 %6 to i64
  %8 = getelementptr inbounds nuw ptr, ptr %5, i64 %7
  ret ptr %8
}

; Function Attrs: mustprogress nounwind uwtable
define linkonce_odr hidden noundef ptr @_ZN6vectorIPN5smtfd13theory_pluginELb0EjE5beginEv(ptr noundef nonnull align 8 dereferenceable(8) %0) #6 comdat align 2 {
  %2 = alloca ptr, align 8
  store ptr %0, ptr %2, align 8, !tbaa !19
  %3 = load ptr, ptr %2, align 8
  %4 = getelementptr inbounds nuw %class.vector.1, ptr %3, i32 0, i32 0
  %5 = load ptr, ptr %4, align 8, !tbaa !21
  ret ptr %5
}

; Function Attrs: mustprogress uwtable
define hidden noundef zeroext i1 @_ZN5smtfd14plugin_context12term_coveredEP4expr(ptr noundef nonnull align 8 dereferenceable(72) %0, ptr noundef %1) #4 align 2 {
  %3 = alloca i1, align 1
  %4 = alloca ptr, align 8
  %5 = alloca ptr, align 8
  %6 = alloca ptr, align 8
  %7 = alloca ptr, align 8
  %8 = alloca ptr, align 8
  %9 = alloca i32, align 4
  %10 = alloca ptr, align 8
  store ptr %0, ptr %4, align 8, !tbaa !3
  store ptr %1, ptr %5, align 8, !tbaa !27
  %11 = load ptr, ptr %4, align 8
  call void @llvm.lifetime.start.p0(i64 8, ptr %6) #3
  %12 = getelementptr inbounds nuw %"class.smtfd::plugin_context", ptr %11, i32 0, i32 5
  store ptr %12, ptr %6, align 8, !tbaa !10
  call void @llvm.lifetime.start.p0(i64 8, ptr %7) #3
  %13 = load ptr, ptr %6, align 8, !tbaa !10
  %14 = call noundef ptr @_ZN6vectorIPN5smtfd13theory_pluginELb0EjE5beginEv(ptr noundef nonnull align 8 dereferenceable(8) %13)
  store ptr %14, ptr %7, align 8, !tbaa !12
  call void @llvm.lifetime.start.p0(i64 8, ptr %8) #3
  %15 = load ptr, ptr %6, align 8, !tbaa !10
  %16 = call noundef ptr @_ZN6vectorIPN5smtfd13theory_pluginELb0EjE3endEv(ptr noundef nonnull align 8 dereferenceable(8) %15)
  store ptr %16, ptr %8, align 8, !tbaa !12
  br label %17

17:                                               ; preds = %36, %2
  %18 = load ptr, ptr %7, align 8, !tbaa !12
  %19 = load ptr, ptr %8, align 8, !tbaa !12
  %20 = icmp ne ptr %18, %19
  br i1 %20, label %22, label %21

21:                                               ; preds = %17
  store i32 2, ptr %9, align 4
  br label %39

22:                                               ; preds = %17
  call void @llvm.lifetime.start.p0(i64 8, ptr %10) #3
  %23 = load ptr, ptr %7, align 8, !tbaa !12
  %24 = load ptr, ptr %23, align 8, !tbaa !15
  store ptr %24, ptr %10, align 8, !tbaa !15
  %25 = load ptr, ptr %10, align 8, !tbaa !15
  %26 = load ptr, ptr %5, align 8, !tbaa !27
  %27 = load ptr, ptr %25, align 8, !tbaa !17
  %28 = getelementptr inbounds ptr, ptr %27, i64 6
  %29 = load ptr, ptr %28, align 8
  %30 = call noundef zeroext i1 %29(ptr noundef nonnull align 8 dereferenceable(144) %25, ptr noundef %26)
  br i1 %30, label %31, label %32

31:                                               ; preds = %22
  store i1 true, ptr %3, align 1
  store i32 1, ptr %9, align 4
  br label %33

32:                                               ; preds = %22
  store i32 0, ptr %9, align 4
  br label %33

33:                                               ; preds = %32, %31
  call void @llvm.lifetime.end.p0(i64 8, ptr %10) #3
  %34 = load i32, ptr %9, align 4
  switch i32 %34, label %39 [
    i32 0, label %35
  ]

35:                                               ; preds = %33
  br label %36

36:                                               ; preds = %35
  %37 = load ptr, ptr %7, align 8, !tbaa !12
  %38 = getelementptr inbounds nuw ptr, ptr %37, i32 1
  store ptr %38, ptr %7, align 8, !tbaa !12
  br label %17

39:                                               ; preds = %33, %21
  call void @llvm.lifetime.end.p0(i64 8, ptr %8) #3
  call void @llvm.lifetime.end.p0(i64 8, ptr %7) #3
  call void @llvm.lifetime.end.p0(i64 8, ptr %6) #3
  %40 = load i32, ptr %9, align 4
  switch i32 %40, label %44 [
    i32 2, label %41
    i32 1, label %42
  ]

41:                                               ; preds = %39
  store i1 false, ptr %3, align 1
  br label %42

42:                                               ; preds = %41, %39
  %43 = load i1, ptr %3, align 1
  ret i1 %43

44:                                               ; preds = %39
  unreachable
}